target datalayout = "e-m:e-p270:32:32-p271:32:32-p272:64:64-i64:64-i128:128-f80:128-n8:16:32:64-S128"
target triple = "x86_64-pc-linux-gnu"

%struct.RelFileLocator = type { i32, i32, i32 }
%struct.PendingRelDelete = type { %struct.RelFileLocator, i32, i8, i32, ptr }

@pendingDeletes = internal global ptr null, align 8

; Function Attrs: nounwind uwtable
define dso_local void @AtSubCommit_smgr() #0 {
  %1 = alloca i32, align 4
  %2 = alloca ptr, align 8
  call void @llvm.lifetime.start.p0(i64 4, ptr %1) #8
  %3 = call i32 @GetCurrentTransactionNestLevel()
  store i32 %3, ptr %1, align 4
  call void @llvm.lifetime.start.p0(i64 8, ptr %2) #8
  %4 = load ptr, ptr @pendingDeletes, align 8
  store ptr %4, ptr %2, align 8
  br label %5

5:                                                ; preds = %20, %0
  %6 = load ptr, ptr %2, align 8
  %7 = icmp ne ptr %6, null
  br i1 %7, label %8, label %24

8:                                                ; preds = %5
  %9 = load ptr, ptr %2, align 8
  %10 = getelementptr inbounds nuw %struct.PendingRelDelete, ptr %9, i32 0, i32 3
  %11 = load i32, ptr %10, align 4
  %12 = load i32, ptr %1, align 4
  %13 = icmp sge i32 %11, %12
  br i1 %13, label %14, label %19

14:                                               ; preds = %8
  %15 = load i32, ptr %1, align 4
  %16 = sub i32 %15, 1
  %17 = load ptr, ptr %2, align 8
  %18 = getelementptr inbounds nuw %struct.PendingRelDelete, ptr %17, i32 0, i32 3
  store i32 %16, ptr %18, align 4
  br label %19

19:                                               ; preds = %14, %8
  br label %20

20:                                               ; preds = %19
  %21 = load ptr, ptr %2, align 8
  %22 = getelementptr inbounds nuw %struct.PendingRelDelete, ptr %21, i32 0, i32 4
  %23 = load ptr, ptr %22, align 8
  store ptr %23, ptr %2, align 8
  br label %5, !llvm.loop !24

24:                                               ; preds = %5
  call void @llvm.lifetime.end.p0(i64 8, ptr %2) #8
  call void @llvm.lifetime.end.p0(i64 4, ptr %1) #8
  ret void
}