; Function Attrs: nounwind uwtable
define dso_local void @AtSubCommit_smgr() local_unnamed_addr #0 {
  %1 = tail call i32 @GetCurrentTransactionNestLevel() #8
  %.07 = load ptr, ptr @pendingDeletes, align 8
  %.not8 = icmp eq ptr %.07, null
  br i1 %.not8, label %._crit_edge, label %.lr.ph

.lr.ph:                                           ; preds = %0
  %2 = add i32 %1, -1
  br label %3

3:                                                ; preds = %.lr.ph, %7
  %.09 = phi ptr [ %.07, %.lr.ph ], [ %.0, %7 ]
  %4 = getelementptr inbounds nuw i8, ptr %.09, i64 20
  %5 = load i32, ptr %4, align 4
  %.not6 = icmp slt i32 %5, %1
  br i1 %.not6, label %7, label %6

6:                                                ; preds = %3
  store i32 %2, ptr %4, align 4
  br label %7

7:                                                ; preds = %3, %6
  %8 = getelementptr inbounds nuw i8, ptr %.09, i64 24
  %.0 = load ptr, ptr %8, align 8
  %.not = icmp eq ptr %.0, null
  br i1 %.not, label %._crit_edge, label %3, !llvm.loop !24

._crit_edge:                                      ; preds = %7, %0
  ret void
}